target datalayout = "e-m:e-p270:32:32-p271:32:32-p272:64:64-i64:64-i128:128-f80:128-n8:16:32:64-S128"
target triple = "x86_64-pc-linux-gnu"

%struct.AVFilterContext = type { ptr, ptr, ptr, ptr, ptr, i32, ptr, ptr, i32, ptr, ptr, i32, i32, ptr, ptr, ptr, ptr, i32, ptr, i32, i32 }
%struct.LUT3DContext = type { ptr, ptr, i32, i32, %struct.rgbvec, i32, ptr, [4 x i8], i32, ptr, %struct.Lut3DPreLut, i32, i32, [4 x i8], i32, i32, i32, i32, i32, %struct.FFFrameSync }
%struct.rgbvec = type { float, float, float }
%struct.Lut3DPreLut = type { i32, [3 x float], [3 x float], [3 x float], [3 x ptr] }
%struct.FFFrameSync = type { ptr, ptr, i32, %struct.AVRational, i64, ptr, ptr, i32, i32, i8, i8, ptr, i32, i32, i32, i32 }
%struct.AVRational = type { i32, i32 }
%struct.AVFilterLink = type { ptr, ptr, ptr, ptr, i32, i32, i32, i32, %struct.AVRational, i32, i32, i32, %struct.AVChannelLayout, %struct.AVRational, ptr, i32, %struct.AVFilterFormatsConfig, %struct.AVFilterFormatsConfig }
%struct.AVChannelLayout = type { i32, i32, %union.anon.1, ptr }
%union.anon.1 = type { i64 }
%struct.AVFilterFormatsConfig = type { ptr, ptr, ptr, ptr, ptr }
%struct.ThreadData = type { ptr, ptr }
%struct.AVFrame = type { [8 x ptr], [8 x i32], ptr, i32, i32, i32, i32, i32, %struct.AVRational, i64, i64, %struct.AVRational, i32, ptr, i32, i32, [8 x ptr], ptr, i32, ptr, i32, i32, i32, i32, i32, i32, i32, i64, ptr, i32, ptr, ptr, i64, i64, i64, i64, ptr, %struct.AVChannelLayout, i64 }

; Function Attrs: nounwind uwtable
define internal ptr @apply_lut(ptr noundef %0, ptr noundef %1) #1 {
  %3 = alloca ptr, align 8
  %4 = alloca ptr, align 8
  %5 = alloca ptr, align 8
  %6 = alloca ptr, align 8
  %7 = alloca ptr, align 8
  %8 = alloca ptr, align 8
  %9 = alloca ptr, align 8
  %10 = alloca %struct.ThreadData, align 8
  %11 = alloca i32, align 4
  store ptr %0, ptr %4, align 8, !tbaa !45
  store ptr %1, ptr %5, align 8, !tbaa !56
  call void @llvm.lifetime.start.p0(i64 8, ptr %6) #16
  %12 = load ptr, ptr %4, align 8, !tbaa !45
  %13 = getelementptr inbounds nuw %struct.AVFilterLink, ptr %12, i32 0, i32 2
  %14 = load ptr, ptr %13, align 8, !tbaa !58
  store ptr %14, ptr %6, align 8, !tbaa !4
  call void @llvm.lifetime.start.p0(i64 8, ptr %7) #16
  %15 = load ptr, ptr %6, align 8, !tbaa !4
  %16 = getelementptr inbounds nuw %struct.AVFilterContext, ptr %15, i32 0, i32 9
  %17 = load ptr, ptr %16, align 8, !tbaa !9
  store ptr %17, ptr %7, align 8, !tbaa !22
  call void @llvm.lifetime.start.p0(i64 8, ptr %8) #16
  %18 = load ptr, ptr %4, align 8, !tbaa !45
  %19 = getelementptr inbounds nuw %struct.AVFilterLink, ptr %18, i32 0, i32 2
  %20 = load ptr, ptr %19, align 8, !tbaa !58
  %21 = getelementptr inbounds nuw %struct.AVFilterContext, ptr %20, i32 0, i32 7
  %22 = load ptr, ptr %21, align 8, !tbaa !65
  %23 = getelementptr inbounds ptr, ptr %22, i64 0
  %24 = load ptr, ptr %23, align 8, !tbaa !45
  store ptr %24, ptr %8, align 8, !tbaa !45
  call void @llvm.lifetime.start.p0(i64 8, ptr %9) #16
  call void @llvm.lifetime.start.p0(i64 16, ptr %10) #16
  %25 = load ptr, ptr %5, align 8, !tbaa !56
  %26 = call i32 @av_frame_is_writable(ptr noundef %25)
  %27 = icmp ne i32 %26, 0
  br i1 %27, label %28, label %30

28:                                               ; preds = %2
  %29 = load ptr, ptr %5, align 8, !tbaa !56
  store ptr %29, ptr %9, align 8, !tbaa !56
  br label %46

30:                                               ; preds = %2
  %31 = load ptr, ptr %8, align 8, !tbaa !45
  %32 = load ptr, ptr %8, align 8, !tbaa !45
  %33 = getelementptr inbounds nuw %struct.AVFilterLink, ptr %32, i32 0, i32 6
  %34 = load i32, ptr %33, align 8, !tbaa !76
  %35 = load ptr, ptr %8, align 8, !tbaa !45
  %36 = getelementptr inbounds nuw %struct.AVFilterLink, ptr %35, i32 0, i32 7
  %37 = load i32, ptr %36, align 4, !tbaa !77
  %38 = call ptr @ff_get_video_buffer(ptr noundef %31, i32 noundef %34, i32 noundef %37)
  store ptr %38, ptr %9, align 8, !tbaa !56
  %39 = load ptr, ptr %9, align 8, !tbaa !56
  %40 = icmp ne ptr %39, null
  br i1 %40, label %42, label %41

41:                                               ; preds = %30
  call void @av_frame_free(ptr noundef %5)
  store ptr null, ptr %3, align 8
  store i32 1, ptr %11, align 4
  br label %81

42:                                               ; preds = %30
  %43 = load ptr, ptr %9, align 8, !tbaa !56
  %44 = load ptr, ptr %5, align 8, !tbaa !56
  %45 = call i32 @av_frame_copy_props(ptr noundef %43, ptr noundef %44)
  br label %46

46:                                               ; preds = %42, %28
  %47 = load ptr, ptr %9, align 8, !tbaa !56
  %48 = getelementptr inbounds nuw %struct.AVFrame, ptr %47, i32 0, i32 19
  %49 = load ptr, ptr %9, align 8, !tbaa !56
  %50 = getelementptr inbounds nuw %struct.AVFrame, ptr %49, i32 0, i32 20
  call void @av_frame_side_data_remove_by_props(ptr noundef %48, ptr noundef %50, i32 noundef 8)
  %51 = load ptr, ptr %5, align 8, !tbaa !56
  %52 = getelementptr inbounds nuw %struct.ThreadData, ptr %10, i32 0, i32 0
  store ptr %51, ptr %52, align 8, !tbaa !78
  %53 = load ptr, ptr %9, align 8, !tbaa !56
  %54 = getelementptr inbounds nuw %struct.ThreadData, ptr %10, i32 0, i32 1
  store ptr %53, ptr %54, align 8, !tbaa !80
  %55 = load ptr, ptr %6, align 8, !tbaa !4
  %56 = load ptr, ptr %7, align 8, !tbaa !22
  %57 = getelementptr inbounds nuw %struct.LUT3DContext, ptr %56, i32 0, i32 9
  %58 = load ptr, ptr %57, align 8, !tbaa !75
  %59 = load ptr, ptr %8, align 8, !tbaa !45
  %60 = getelementptr inbounds nuw %struct.AVFilterLink, ptr %59, i32 0, i32 7
  %61 = load i32, ptr %60, align 4, !tbaa !77
  %62 = load ptr, ptr %6, align 8, !tbaa !4
  %63 = call i32 @ff_filter_get_nb_threads(ptr noundef %62) #18
  %64 = icmp sgt i32 %61, %63
  br i1 %64, label %65, label %68

65:                                               ; preds = %46
  %66 = load ptr, ptr %6, align 8, !tbaa !4
  %67 = call i32 @ff_filter_get_nb_threads(ptr noundef %66) #18
  br label %72

68:                                               ; preds = %46
  %69 = load ptr, ptr %8, align 8, !tbaa !45
  %70 = getelementptr inbounds nuw %struct.AVFilterLink, ptr %69, i32 0, i32 7
  %71 = load i32, ptr %70, align 4, !tbaa !77
  br label %72

72:                                               ; preds = %68, %65
  %73 = phi i32 [ %67, %65 ], [ %71, %68 ]
  %74 = call i32 @ff_filter_execute(ptr noundef %55, ptr noundef %58, ptr noundef %10, ptr noundef null, i32 noundef %73)
  %75 = load ptr, ptr %9, align 8, !tbaa !56
  %76 = load ptr, ptr %5, align 8, !tbaa !56
  %77 = icmp ne ptr %75, %76
  br i1 %77, label %78, label %79

78:                                               ; preds = %72
  call void @av_frame_free(ptr noundef %5)
  br label %79

79:                                               ; preds = %78, %72
  %80 = load ptr, ptr %9, align 8, !tbaa !56
  store ptr %80, ptr %3, align 8
  store i32 1, ptr %11, align 4
  br label %81

81:                                               ; preds = %79, %41
  call void @llvm.lifetime.end.p0(i64 16, ptr %10) #16
  call void @llvm.lifetime.end.p0(i64 8, ptr %9) #16
  call void @llvm.lifetime.end.p0(i64 8, ptr %8) #16
  call void @llvm.lifetime.end.p0(i64 8, ptr %7) #16
  call void @llvm.lifetime.end.p0(i64 8, ptr %6) #16
  %82 = load ptr, ptr %3, align 8
  ret ptr %82
}