; Function Attrs: nounwind uwtable
define internal fastcc ptr @apply_lut(ptr %.16.val, ptr noundef %0) unnamed_addr #1 {
  %2 = alloca ptr, align 8
  %3 = alloca %struct.ThreadData, align 8
  store ptr %0, ptr %2, align 8, !tbaa !116
  %4 = getelementptr inbounds nuw i8, ptr %.16.val, i64 72
  %5 = load ptr, ptr %4, align 8, !tbaa !4
  %6 = getelementptr inbounds nuw i8, ptr %.16.val, i64 56
  %7 = load ptr, ptr %6, align 8, !tbaa !107
  %8 = load ptr, ptr %7, align 8, !tbaa !78
  call void @llvm.lifetime.start.p0(i64 16, ptr nonnull %3) #21
  %9 = tail call i32 @av_frame_is_writable(ptr noundef %0) #21
  %.not = icmp eq i32 %9, 0
  br i1 %.not, label %10, label %18

10:                                               ; preds = %1
  %11 = getelementptr inbounds nuw i8, ptr %8, i64 40
  %12 = load i32, ptr %11, align 8, !tbaa !118
  %13 = getelementptr inbounds nuw i8, ptr %8, i64 44
  %14 = load i32, ptr %13, align 4, !tbaa !119
  %15 = tail call ptr @ff_get_video_buffer(ptr noundef %8, i32 noundef %12, i32 noundef %14) #21
  %.not24 = icmp eq ptr %15, null
  br i1 %.not24, label %.sink.split, label %16

16:                                               ; preds = %10
  %17 = tail call i32 @av_frame_copy_props(ptr noundef nonnull %15, ptr noundef %0) #21
  br label %18

18:                                               ; preds = %1, %16
  %.0 = phi ptr [ %15, %16 ], [ %0, %1 ]
  %19 = getelementptr inbounds nuw i8, ptr %.0, i64 264
  %20 = getelementptr inbounds nuw i8, ptr %.0, i64 272
  tail call void @av_frame_side_data_remove_by_props(ptr noundef nonnull %19, ptr noundef nonnull %20, i32 noundef 8) #21
  store ptr %0, ptr %3, align 8, !tbaa !120
  %21 = getelementptr inbounds nuw i8, ptr %3, i64 8
  store ptr %.0, ptr %21, align 8, !tbaa !122
  %22 = getelementptr inbounds nuw i8, ptr %5, i64 56
  %23 = load ptr, ptr %22, align 8, !tbaa !115
  %24 = getelementptr inbounds nuw i8, ptr %8, i64 44
  %25 = load i32, ptr %24, align 4, !tbaa !119
  %26 = tail call i32 @ff_filter_get_nb_threads(ptr noundef nonnull %.16.val) #23
  %. = tail call i32 @llvm.smin.i32(i32 %25, i32 %26)
  %27 = call i32 @ff_filter_execute(ptr noundef nonnull %.16.val, ptr noundef %23, ptr noundef nonnull %3, ptr noundef null, i32 noundef %.) #21
  %28 = load ptr, ptr %2, align 8, !tbaa !116
  %.not25 = icmp eq ptr %.0, %28
  br i1 %.not25, label %29, label %.sink.split

.sink.split:                                      ; preds = %18, %10
  %.020.ph = phi ptr [ null, %10 ], [ %.0, %18 ]
  call void @av_frame_free(ptr noundef nonnull %2) #21
  br label %29

29:                                               ; preds = %.sink.split, %18
  %.020 = phi ptr [ %.0, %18 ], [ %.020.ph, %.sink.split ]
  call void @llvm.lifetime.end.p0(i64 16, ptr nonnull %3) #21
  ret ptr %.020
}